target datalayout = "e-m:e-p270:32:32-p271:32:32-p272:64:64-i64:64-i128:128-f80:128-n8:16:32:64-S128"
target triple = "x86_64-pc-linux-gnu"

; Function Attrs: inlinehint mustprogress nounwind uwtable
define linkonce_odr hidden noundef zeroext i1 @_ZN2cv12cpu_baseline11hasNonZero_IhEEbPKT_m(ptr noundef %0, i64 noundef %1) #6 comdat {
  %3 = alloca ptr, align 8
  %4 = alloca i64, align 8
  %5 = alloca i8, align 1
  %6 = alloca i64, align 8
  store ptr %0, ptr %3, align 8, !tbaa !9
  store i64 %1, ptr %4, align 8, !tbaa !11
  call void @llvm.lifetime.start.p0(i64 1, ptr %5) #12
  store i8 0, ptr %5, align 1, !tbaa !13
  %7 = load i64, ptr %4, align 8, !tbaa !11
  %8 = icmp ugt i64 %7, 0
  br i1 %8, label %9, label %37

9:                                                ; preds = %2
  call void @llvm.lifetime.start.p0(i64 8, ptr %6) #12
  store i64 0, ptr %6, align 8, !tbaa !11
  br label %10

10:                                               ; preds = %33, %9
  %11 = load i8, ptr %5, align 1, !tbaa !13, !range !15, !noundef !16
  %12 = trunc i8 %11 to i1
  br i1 %12, label %17, label %13

13:                                               ; preds = %10
  %14 = load i64, ptr %6, align 8, !tbaa !11
  %15 = load i64, ptr %4, align 8, !tbaa !11
  %16 = icmp ult i64 %14, %15
  br label %17

17:                                               ; preds = %13, %10
  %18 = phi i1 [ false, %10 ], [ %16, %13 ]
  br i1 %18, label %19, label %36

19:                                               ; preds = %17
  %20 = load ptr, ptr %3, align 8, !tbaa !9
  %21 = load i64, ptr %6, align 8, !tbaa !11
  %22 = getelementptr inbounds nuw i8, ptr %20, i64 %21
  %23 = load i8, ptr %22, align 1, !tbaa !63
  %24 = zext i8 %23 to i32
  %25 = icmp ne i32 %24, 0
  %26 = zext i1 %25 to i32
  %27 = load i8, ptr %5, align 1, !tbaa !13, !range !15, !noundef !16
  %28 = trunc i8 %27 to i1
  %29 = zext i1 %28 to i32
  %30 = or i32 %29, %26
  %31 = icmp ne i32 %30, 0
  %32 = zext i1 %31 to i8
  store i8 %32, ptr %5, align 1, !tbaa !13
  br label %33

33:                                               ; preds = %19
  %34 = load i64, ptr %6, align 8, !tbaa !11
  %35 = add i64 %34, 1
  store i64 %35, ptr %6, align 8, !tbaa !11
  br label %10, !llvm.loop !64

36:                                               ; preds = %17
  call void @llvm.lifetime.end.p0(i64 8, ptr %6) #12
  br label %37

37:                                               ; preds = %36, %2
  %38 = load i8, ptr %5, align 1, !tbaa !13, !range !15, !noundef !16
  %39 = trunc i8 %38 to i1
  call void @llvm.lifetime.end.p0(i64 1, ptr %5) #12
  ret i1 %39
}

; Function Attrs: mustprogress uwtable
define internal noundef zeroext i1 @_ZN2cv12cpu_baselineL12hasNonZero8uEPKhm(ptr noundef %0, i64 noundef %1) #1 {
  %3 = alloca ptr, align 8
  %4 = alloca i64, align 8
  %5 = alloca i8, align 1
  %6 = alloca ptr, align 8
  store ptr %0, ptr %3, align 8, !tbaa !9
  store i64 %1, ptr %4, align 8, !tbaa !11
  call void @llvm.lifetime.start.p0(i64 1, ptr %5) #12
  store i8 0, ptr %5, align 1, !tbaa !13
  call void @llvm.lifetime.start.p0(i64 8, ptr %6) #12
  %7 = load ptr, ptr %3, align 8, !tbaa !9
  %8 = load i64, ptr %4, align 8, !tbaa !11
  %9 = getelementptr inbounds nuw i8, ptr %7, i64 %8
  store ptr %9, ptr %6, align 8, !tbaa !9
  %10 = load i8, ptr %5, align 1, !tbaa !13, !range !15, !noundef !16
  %11 = trunc i8 %10 to i1
  br i1 %11, label %20, label %12

12:                                               ; preds = %2
  %13 = load ptr, ptr %3, align 8, !tbaa !9
  %14 = load ptr, ptr %6, align 8, !tbaa !9
  %15 = load ptr, ptr %3, align 8, !tbaa !9
  %16 = ptrtoint ptr %14 to i64
  %17 = ptrtoint ptr %15 to i64
  %18 = sub i64 %16, %17
  %19 = call noundef zeroext i1 @_ZN2cv12cpu_baseline11hasNonZero_IhEEbPKT_m(ptr noundef %13, i64 noundef %18)
  br label %20

20:                                               ; preds = %12, %2
  %21 = phi i1 [ true, %2 ], [ %19, %12 ]
  call void @llvm.lifetime.end.p0(i64 8, ptr %6) #12
  call void @llvm.lifetime.end.p0(i64 1, ptr %5) #12
  ret i1 %21
}